target datalayout = "e-m:e-p270:32:32-p271:32:32-p272:64:64-i64:64-i128:128-f80:128-n8:16:32:64-S128"
target triple = "x86_64-pc-linux-gnu"

; Function Attrs: alwaysinline nounwind
define internal ptr @memcpy.inline(ptr noalias %0, ptr noalias %1, i64 %2) #5 {
  %4 = alloca ptr, align 8
  %5 = alloca ptr, align 8
  %6 = alloca i64, align 8
  store ptr %0, ptr %4, align 8
  store ptr %1, ptr %5, align 8
  store i64 %2, ptr %6, align 8
  %7 = load ptr, ptr %4, align 8
  %8 = load ptr, ptr %5, align 8
  %9 = load i64, ptr %6, align 8
  %10 = load ptr, ptr %4, align 8
  %11 = call i64 @llvm.objectsize.i64.p0(ptr %10, i1 false, i1 true, i1 true)
  %12 = call ptr @__memcpy_chk(ptr noundef %7, ptr noundef %8, i64 noundef %9, i64 noundef %11) #9
  ret ptr %12
}

; Function Attrs: null_pointer_is_valid sspstrong uwtable
define internal ptr @decrypt_data_security_data_with_key(ptr noundef %0, ptr noundef %1, ptr noundef %2, i32 noundef %3, ptr noundef %4, i32 noundef %5) #0 {
  %7 = alloca ptr, align 8
  %8 = alloca ptr, align 8
  %9 = alloca ptr, align 8
  %10 = alloca i32, align 4
  %11 = alloca ptr, align 8
  %12 = alloca i32, align 4
  %13 = alloca [16 x i8], align 16
  %14 = alloca [16 x i8], align 16
  %15 = alloca [16 x i8], align 16
  %16 = alloca ptr, align 8
  %17 = alloca ptr, align 8
  %18 = alloca i32, align 4
  %19 = alloca i32, align 4
  %20 = alloca ptr, align 8
  %21 = alloca i32, align 4
  %22 = alloca i32, align 4
  %23 = alloca i8, align 1
  store ptr %0, ptr %7, align 8
  store ptr %1, ptr %8, align 8
  store ptr %2, ptr %9, align 8
  store i32 %3, ptr %10, align 4
  store ptr %4, ptr %11, align 8
  store i32 %5, ptr %12, align 4
  call void @llvm.lifetime.start.p0(i64 16, ptr %13) #9
  call void @llvm.lifetime.start.p0(i64 16, ptr %14) #9
  call void @llvm.lifetime.start.p0(i64 16, ptr %15) #9
  call void @llvm.lifetime.start.p0(i64 8, ptr %16) #9
  store ptr null, ptr %16, align 8
  call void @llvm.lifetime.start.p0(i64 8, ptr %17) #9
  store ptr null, ptr %17, align 8
  call void @llvm.lifetime.start.p0(i64 4, ptr %18) #9
  store i32 0, ptr %18, align 4
  call void @llvm.lifetime.start.p0(i64 4, ptr %19) #9
  store i32 0, ptr %19, align 4
  call void @llvm.lifetime.start.p0(i64 8, ptr %20) #9
  store ptr null, ptr %20, align 8
  %24 = load i32, ptr %10, align 4
  %25 = icmp sgt i32 %24, 4
  br i1 %25, label %26, label %297

26:                                               ; preds = %6
  %27 = load i32, ptr %12, align 4
  %28 = icmp sge i32 %27, 2
  br i1 %28, label %29, label %296

29:                                               ; preds = %26
  call void @llvm.lifetime.start.p0(i64 4, ptr %21) #9
  %30 = load ptr, ptr %11, align 8
  %31 = getelementptr i8, ptr %30, i64 1
  %32 = load i8, ptr %31, align 1
  %33 = zext i8 %32 to i32
  store i32 %33, ptr %21, align 4
  call void @llvm.lifetime.start.p0(i64 4, ptr %22) #9
  %34 = load i32, ptr %21, align 4
  %35 = add i32 %34, 11
  store i32 %35, ptr %22, align 4
  %36 = load i32, ptr %22, align 4
  %37 = add i32 %36, 6
  %38 = load i32, ptr %12, align 4
  %39 = icmp sle i32 %37, %38
  br i1 %39, label %40, label %295

40:                                               ; preds = %29
  call void @llvm.lifetime.start.p0(i64 1, ptr %23) #9
  %41 = load ptr, ptr %11, align 8
  %42 = load i32, ptr %22, align 4
  %43 = sext i32 %42 to i64
  %44 = getelementptr i8, ptr %41, i64 %43
  %45 = load i8, ptr %44, align 1
  store i8 %45, ptr %23, align 1
  %46 = load i8, ptr %23, align 1
  %47 = zext i8 %46 to i32
  %48 = and i32 %47, 48
  %49 = icmp eq i32 %48, 16
  br i1 %49, label %50, label %54

50:                                               ; preds = %40
  %51 = load ptr, ptr %9, align 8
  store ptr %51, ptr %17, align 8
  %52 = load i32, ptr %10, align 4
  %53 = sub i32 %52, 4
  store i32 %53, ptr %19, align 4
  br label %54

54:                                               ; preds = %50, %40
  %55 = load ptr, ptr %11, align 8
  %56 = load i32, ptr %22, align 4
  %57 = add i32 %56, 1
  %58 = sext i32 %57 to i64
  %59 = getelementptr i8, ptr %55, i64 %58
  %60 = load i8, ptr %59, align 1
  %61 = getelementptr [16 x i8], ptr %14, i64 0, i64 0
  store i8 %60, ptr %61, align 16
  %62 = load ptr, ptr %11, align 8
  %63 = load i32, ptr %22, align 4
  %64 = add i32 %63, 2
  %65 = sext i32 %64 to i64
  %66 = getelementptr i8, ptr %62, i64 %65
  %67 = load i8, ptr %66, align 1
  %68 = getelementptr [16 x i8], ptr %14, i64 0, i64 1
  store i8 %67, ptr %68, align 1
  %69 = load ptr, ptr %11, align 8
  %70 = load i32, ptr %22, align 4
  %71 = add i32 %70, 3
  %72 = sext i32 %71 to i64
  %73 = getelementptr i8, ptr %69, i64 %72
  %74 = load i8, ptr %73, align 1
  %75 = getelementptr [16 x i8], ptr %14, i64 0, i64 2
  store i8 %74, ptr %75, align 2
  %76 = load ptr, ptr %11, align 8
  %77 = load i32, ptr %22, align 4
  %78 = add i32 %77, 4
  %79 = sext i32 %78 to i64
  %80 = getelementptr i8, ptr %76, i64 %79
  %81 = load i8, ptr %80, align 1
  %82 = getelementptr [16 x i8], ptr %14, i64 0, i64 3
  store i8 %81, ptr %82, align 1
  %83 = load ptr, ptr %11, align 8
  %84 = load i32, ptr %22, align 4
  %85 = add i32 %84, 5
  %86 = sext i32 %85 to i64
  %87 = getelementptr i8, ptr %83, i64 %86
  %88 = load i8, ptr %87, align 1
  %89 = getelementptr [16 x i8], ptr %14, i64 0, i64 4
  store i8 %88, ptr %89, align 4
  %90 = load ptr, ptr %11, align 8
  %91 = load i32, ptr %22, align 4
  %92 = add i32 %91, 6
  %93 = sext i32 %92 to i64
  %94 = getelementptr i8, ptr %90, i64 %93
  %95 = load i8, ptr %94, align 1
  %96 = getelementptr [16 x i8], ptr %14, i64 0, i64 5
  store i8 %95, ptr %96, align 1
  %97 = load ptr, ptr %11, align 8
  %98 = load i32, ptr %21, align 4
  %99 = add i32 %98, 4
  %100 = sext i32 %99 to i64
  %101 = getelementptr i8, ptr %97, i64 %100
  %102 = load i8, ptr %101, align 1
  %103 = getelementptr [16 x i8], ptr %14, i64 0, i64 6
  store i8 %102, ptr %103, align 2
  %104 = load ptr, ptr %11, align 8
  %105 = load i32, ptr %21, align 4
  %106 = add i32 %105, 5
  %107 = sext i32 %106 to i64
  %108 = getelementptr i8, ptr %104, i64 %107
  %109 = load i8, ptr %108, align 1
  %110 = getelementptr [16 x i8], ptr %14, i64 0, i64 7
  store i8 %109, ptr %110, align 1
  %111 = load ptr, ptr %11, align 8
  %112 = load i32, ptr %21, align 4
  %113 = add i32 %112, 6
  %114 = sext i32 %113 to i64
  %115 = getelementptr i8, ptr %111, i64 %114
  %116 = load i8, ptr %115, align 1
  %117 = getelementptr [16 x i8], ptr %14, i64 0, i64 8
  store i8 %116, ptr %117, align 8
  %118 = load ptr, ptr %11, align 8
  %119 = load i32, ptr %21, align 4
  %120 = add i32 %119, 7
  %121 = sext i32 %120 to i64
  %122 = getelementptr i8, ptr %118, i64 %121
  %123 = load i8, ptr %122, align 1
  %124 = getelementptr [16 x i8], ptr %14, i64 0, i64 9
  store i8 %123, ptr %124, align 1
  %125 = getelementptr [16 x i8], ptr %14, i64 0, i64 10
  store i8 0, ptr %125, align 2
  %126 = load ptr, ptr %11, align 8
  %127 = load i32, ptr %21, align 4
  %128 = add i32 %127, 3
  %129 = sext i32 %128 to i64
  %130 = getelementptr i8, ptr %126, i64 %129
  %131 = load i8, ptr %130, align 1
  %132 = zext i8 %131 to i32
  %133 = and i32 %132, 143
  %134 = trunc i32 %133 to i8
  %135 = getelementptr [16 x i8], ptr %14, i64 0, i64 11
  store i8 %134, ptr %135, align 1
  %136 = load ptr, ptr %11, align 8
  %137 = load i32, ptr %21, align 4
  %138 = add i32 %137, 9
  %139 = sext i32 %138 to i64
  %140 = getelementptr i8, ptr %136, i64 %139
  %141 = load i8, ptr %140, align 1
  %142 = getelementptr [16 x i8], ptr %14, i64 0, i64 12
  store i8 %141, ptr %142, align 4
  %143 = load ptr, ptr %11, align 8
  %144 = load i32, ptr %21, align 4
  %145 = add i32 %144, 10
  %146 = sext i32 %145 to i64
  %147 = getelementptr i8, ptr %143, i64 %146
  %148 = load i8, ptr %147, align 1
  %149 = getelementptr [16 x i8], ptr %14, i64 0, i64 13
  store i8 %148, ptr %149, align 1
  %150 = getelementptr [16 x i8], ptr %14, i64 0, i64 14
  store i8 0, ptr %150, align 2
  %151 = load i32, ptr %19, align 4
  %152 = trunc i32 %151 to i8
  %153 = getelementptr [16 x i8], ptr %14, i64 0, i64 15
  store i8 %152, ptr %153, align 1
  %154 = load ptr, ptr %11, align 8
  %155 = load i32, ptr %22, align 4
  %156 = add i32 %155, 1
  %157 = sext i32 %156 to i64
  %158 = getelementptr i8, ptr %154, i64 %157
  %159 = load i8, ptr %158, align 1
  %160 = getelementptr [16 x i8], ptr %13, i64 0, i64 0
  store i8 %159, ptr %160, align 16
  %161 = load ptr, ptr %11, align 8
  %162 = load i32, ptr %22, align 4
  %163 = add i32 %162, 2
  %164 = sext i32 %163 to i64
  %165 = getelementptr i8, ptr %161, i64 %164
  %166 = load i8, ptr %165, align 1
  %167 = getelementptr [16 x i8], ptr %13, i64 0, i64 1
  store i8 %166, ptr %167, align 1
  %168 = load ptr, ptr %11, align 8
  %169 = load i32, ptr %22, align 4
  %170 = add i32 %169, 3
  %171 = sext i32 %170 to i64
  %172 = getelementptr i8, ptr %168, i64 %171
  %173 = load i8, ptr %172, align 1
  %174 = getelementptr [16 x i8], ptr %13, i64 0, i64 2
  store i8 %173, ptr %174, align 2
  %175 = load ptr, ptr %11, align 8
  %176 = load i32, ptr %22, align 4
  %177 = add i32 %176, 4
  %178 = sext i32 %177 to i64
  %179 = getelementptr i8, ptr %175, i64 %178
  %180 = load i8, ptr %179, align 1
  %181 = getelementptr [16 x i8], ptr %13, i64 0, i64 3
  store i8 %180, ptr %181, align 1
  %182 = load ptr, ptr %11, align 8
  %183 = load i32, ptr %22, align 4
  %184 = add i32 %183, 5
  %185 = sext i32 %184 to i64
  %186 = getelementptr i8, ptr %182, i64 %185
  %187 = load i8, ptr %186, align 1
  %188 = getelementptr [16 x i8], ptr %13, i64 0, i64 4
  store i8 %187, ptr %188, align 4
  %189 = load ptr, ptr %11, align 8
  %190 = load i32, ptr %22, align 4
  %191 = add i32 %190, 6
  %192 = sext i32 %191 to i64
  %193 = getelementptr i8, ptr %189, i64 %192
  %194 = load i8, ptr %193, align 1
  %195 = getelementptr [16 x i8], ptr %13, i64 0, i64 5
  store i8 %194, ptr %195, align 1
  %196 = load ptr, ptr %11, align 8
  %197 = load i32, ptr %21, align 4
  %198 = add i32 %197, 4
  %199 = sext i32 %198 to i64
  %200 = getelementptr i8, ptr %196, i64 %199
  %201 = load i8, ptr %200, align 1
  %202 = getelementptr [16 x i8], ptr %13, i64 0, i64 6
  store i8 %201, ptr %202, align 2
  %203 = load ptr, ptr %11, align 8
  %204 = load i32, ptr %21, align 4
  %205 = add i32 %204, 5
  %206 = sext i32 %205 to i64
  %207 = getelementptr i8, ptr %203, i64 %206
  %208 = load i8, ptr %207, align 1
  %209 = getelementptr [16 x i8], ptr %13, i64 0, i64 7
  store i8 %208, ptr %209, align 1
  %210 = load ptr, ptr %11, align 8
  %211 = load i32, ptr %21, align 4
  %212 = add i32 %211, 6
  %213 = sext i32 %212 to i64
  %214 = getelementptr i8, ptr %210, i64 %213
  %215 = load i8, ptr %214, align 1
  %216 = getelementptr [16 x i8], ptr %13, i64 0, i64 8
  store i8 %215, ptr %216, align 8
  %217 = load ptr, ptr %11, align 8
  %218 = load i32, ptr %21, align 4
  %219 = add i32 %218, 7
  %220 = sext i32 %219 to i64
  %221 = getelementptr i8, ptr %217, i64 %220
  %222 = load i8, ptr %221, align 1
  %223 = getelementptr [16 x i8], ptr %13, i64 0, i64 9
  store i8 %222, ptr %223, align 1
  %224 = getelementptr [16 x i8], ptr %13, i64 0, i64 10
  store i8 0, ptr %224, align 2
  %225 = getelementptr [16 x i8], ptr %13, i64 0, i64 11
  store i8 0, ptr %225, align 1
  %226 = getelementptr [16 x i8], ptr %13, i64 0, i64 12
  store i8 0, ptr %226, align 4
  %227 = getelementptr [16 x i8], ptr %13, i64 0, i64 13
  store i8 0, ptr %227, align 1
  %228 = getelementptr [16 x i8], ptr %13, i64 0, i64 14
  store i8 1, ptr %228, align 2
  %229 = getelementptr [16 x i8], ptr %13, i64 0, i64 15
  store i8 0, ptr %229, align 1
  %230 = load ptr, ptr %8, align 8
  %231 = load ptr, ptr %17, align 8
  %232 = load i32, ptr %19, align 4
  %233 = load ptr, ptr %9, align 8
  %234 = load i32, ptr %10, align 4
  %235 = sext i32 %234 to i64
  %236 = getelementptr i8, ptr %233, i64 %235
  %237 = getelementptr i8, ptr %236, i64 -4
  %238 = getelementptr inbounds [16 x i8], ptr %13, i64 0, i64 0
  %239 = call ptr @knx_ccm_encrypt(ptr noundef null, ptr noundef %230, ptr noundef %231, i32 noundef %232, ptr noundef %237, i8 noundef zeroext 4, ptr noundef %238, i8 noundef zeroext 4)
  store ptr %239, ptr %20, align 8
  %240 = load ptr, ptr %7, align 8
  %241 = load i32, ptr %10, align 4
  %242 = sext i32 %241 to i64
  %243 = call noalias ptr @wmem_alloc(ptr noundef %240, i64 noundef %242) #10
  store ptr %243, ptr %16, align 8
  %244 = load i8, ptr %23, align 1
  %245 = zext i8 %244 to i32
  %246 = and i32 %245, 48
  %247 = icmp eq i32 %246, 16
  br i1 %247, label %248, label %255

248:                                              ; preds = %54
  %249 = load i8, ptr %23, align 1
  %250 = load ptr, ptr %16, align 8
  %251 = getelementptr i8, ptr %250, i64 0
  store i8 %249, ptr %251, align 1
  store i32 1, ptr %18, align 4
  %252 = load ptr, ptr %20, align 8
  store ptr %252, ptr %17, align 8
  %253 = load i32, ptr %10, align 4
  %254 = sub i32 %253, 4
  store i32 %254, ptr %19, align 4
  br label %274

255:                                              ; preds = %54
  %256 = load i8, ptr %23, align 1
  %257 = zext i8 %256 to i32
  %258 = and i32 %257, 48
  %259 = icmp eq i32 %258, 0
  br i1 %259, label %260, label %273

260:                                              ; preds = %255
  %261 = load i8, ptr %23, align 1
  %262 = load ptr, ptr %16, align 8
  %263 = getelementptr i8, ptr %262, i64 0
  store i8 %261, ptr %263, align 1
  %264 = load ptr, ptr %16, align 8
  %265 = getelementptr i8, ptr %264, i64 1
  %266 = load ptr, ptr %20, align 8
  %267 = load i32, ptr %10, align 4
  %268 = sub i32 %267, 4
  %269 = sext i32 %268 to i64
  %270 = call ptr @memcpy.inline(ptr noundef %265, ptr noundef %266, i64 noundef %269) #9
  %271 = load i32, ptr %10, align 4
  %272 = sub i32 %271, 3
  store i32 %272, ptr %18, align 4
  br label %273

273:                                              ; preds = %260, %255
  br label %274

274:                                              ; preds = %273, %248
  %275 = getelementptr inbounds [16 x i8], ptr %15, i64 0, i64 0
  %276 = load ptr, ptr %8, align 8
  %277 = load ptr, ptr %16, align 8
  %278 = load i32, ptr %18, align 4
  %279 = load ptr, ptr %17, align 8
  %280 = load i32, ptr %19, align 4
  %281 = getelementptr inbounds [16 x i8], ptr %14, i64 0, i64 0
  call void @knx_ccm_calc_cbc_mac(ptr noundef %275, ptr noundef %276, ptr noundef %277, i32 noundef %278, ptr noundef %279, i32 noundef %280, ptr noundef %281)
  %282 = load ptr, ptr %7, align 8
  %283 = load ptr, ptr %16, align 8
  call void @wmem_free(ptr noundef %282, ptr noundef %283)
  %284 = getelementptr inbounds [16 x i8], ptr %15, i64 0, i64 0
  %285 = load ptr, ptr %20, align 8
  %286 = load i32, ptr %19, align 4
  %287 = sext i32 %286 to i64
  %288 = getelementptr i8, ptr %285, i64 %287
  %289 = call i32 @memcmp(ptr noundef %284, ptr noundef %288, i64 noundef 4) #11
  %290 = icmp ne i32 %289, 0
  br i1 %290, label %291, label %294

291:                                              ; preds = %274
  %292 = load ptr, ptr %7, align 8
  %293 = load ptr, ptr %20, align 8
  call void @wmem_free(ptr noundef %292, ptr noundef %293)
  store ptr null, ptr %20, align 8
  br label %294

294:                                              ; preds = %291, %274
  call void @llvm.lifetime.end.p0(i64 1, ptr %23) #9
  br label %295

295:                                              ; preds = %294, %29
  call void @llvm.lifetime.end.p0(i64 4, ptr %22) #9
  call void @llvm.lifetime.end.p0(i64 4, ptr %21) #9
  br label %296

296:                                              ; preds = %295, %26
  br label %297

297:                                              ; preds = %296, %6
  %298 = load ptr, ptr %20, align 8
  call void @llvm.lifetime.end.p0(i64 8, ptr %20) #9
  call void @llvm.lifetime.end.p0(i64 4, ptr %19) #9
  call void @llvm.lifetime.end.p0(i64 4, ptr %18) #9
  call void @llvm.lifetime.end.p0(i64 8, ptr %17) #9
  call void @llvm.lifetime.end.p0(i64 8, ptr %16) #9
  call void @llvm.lifetime.end.p0(i64 16, ptr %15) #9
  call void @llvm.lifetime.end.p0(i64 16, ptr %14) #9
  call void @llvm.lifetime.end.p0(i64 16, ptr %13) #9
  ret ptr %298
}