; Function Attrs: null_pointer_is_valid sspstrong uwtable
define internal fastcc ptr @decrypt_data_security_data_with_key(ptr noundef %0, ptr noundef %1, ptr noundef %2, i32 noundef %3, ptr noundef readonly captures(none) %4, i32 noundef range(i32 1, -2147483648) %5) unnamed_addr #0 {
  %7 = alloca [16 x i8], align 16
  %8 = alloca [16 x i8], align 16
  %9 = alloca [16 x i8], align 16
  call void @llvm.lifetime.start.p0(i64 16, ptr nonnull %7) #10
  call void @llvm.lifetime.start.p0(i64 16, ptr nonnull %8) #10
  call void @llvm.lifetime.start.p0(i64 16, ptr nonnull %9) #10
  %10 = icmp sgt i32 %3, 4
  %11 = icmp samesign ugt i32 %5, 1
  %or.cond = select i1 %10, i1 %11, i1 false
  br i1 %or.cond, label %12, label %99

12:                                               ; preds = %6
  %13 = getelementptr i8, ptr %4, i64 1
  %14 = load i8, ptr %13, align 1
  %15 = zext i8 %14 to i32
  %16 = add nuw nsw i32 %15, 17
  %.not = icmp samesign ugt i32 %16, %5
  br i1 %.not, label %99, label %17

17:                                               ; preds = %12
  %18 = zext i8 %14 to i64
  %19 = getelementptr i8, ptr %4, i64 %18
  %20 = getelementptr i8, ptr %19, i64 11
  %21 = load i8, ptr %20, align 1
  %22 = and i8 %21, 48
  %23 = icmp eq i8 %22, 16
  %24 = add nsw i32 %3, -4
  %spec.select = select i1 %23, i32 %24, i32 0
  %spec.select99 = select i1 %23, ptr %2, ptr null
  %25 = getelementptr i8, ptr %19, i64 12
  %26 = load i8, ptr %25, align 1
  store i8 %26, ptr %8, align 16
  %27 = getelementptr i8, ptr %19, i64 13
  %28 = load i8, ptr %27, align 1
  %29 = getelementptr inbounds nuw i8, ptr %8, i64 1
  store i8 %28, ptr %29, align 1
  %30 = getelementptr i8, ptr %19, i64 14
  %31 = load i8, ptr %30, align 1
  %32 = getelementptr inbounds nuw i8, ptr %8, i64 2
  store i8 %31, ptr %32, align 2
  %33 = getelementptr i8, ptr %19, i64 15
  %34 = load i8, ptr %33, align 1
  %35 = getelementptr inbounds nuw i8, ptr %8, i64 3
  store i8 %34, ptr %35, align 1
  %36 = getelementptr i8, ptr %19, i64 16
  %37 = load i8, ptr %36, align 1
  %38 = getelementptr inbounds nuw i8, ptr %8, i64 4
  store i8 %37, ptr %38, align 4
  %39 = zext nneg i32 %16 to i64
  %40 = getelementptr i8, ptr %4, i64 %39
  %41 = load i8, ptr %40, align 1
  %42 = getelementptr inbounds nuw i8, ptr %8, i64 5
  store i8 %41, ptr %42, align 1
  %43 = getelementptr i8, ptr %19, i64 4
  %44 = load i8, ptr %43, align 1
  %45 = getelementptr inbounds nuw i8, ptr %8, i64 6
  store i8 %44, ptr %45, align 2
  %46 = getelementptr i8, ptr %19, i64 5
  %47 = load i8, ptr %46, align 1
  %48 = getelementptr inbounds nuw i8, ptr %8, i64 7
  store i8 %47, ptr %48, align 1
  %49 = getelementptr i8, ptr %19, i64 6
  %50 = load i8, ptr %49, align 1
  %51 = getelementptr inbounds nuw i8, ptr %8, i64 8
  store i8 %50, ptr %51, align 8
  %52 = getelementptr i8, ptr %19, i64 7
  %53 = load i8, ptr %52, align 1
  %54 = getelementptr inbounds nuw i8, ptr %8, i64 9
  store i8 %53, ptr %54, align 1
  %55 = getelementptr inbounds nuw i8, ptr %8, i64 10
  store i8 0, ptr %55, align 2
  %56 = getelementptr i8, ptr %19, i64 3
  %57 = load i8, ptr %56, align 1
  %58 = and i8 %57, -113
  %59 = getelementptr inbounds nuw i8, ptr %8, i64 11
  store i8 %58, ptr %59, align 1
  %60 = getelementptr i8, ptr %19, i64 9
  %61 = load i8, ptr %60, align 1
  %62 = getelementptr inbounds nuw i8, ptr %8, i64 12
  store i8 %61, ptr %62, align 4
  %63 = getelementptr i8, ptr %19, i64 10
  %64 = load i8, ptr %63, align 1
  %65 = getelementptr inbounds nuw i8, ptr %8, i64 13
  store i8 %64, ptr %65, align 1
  %66 = getelementptr inbounds nuw i8, ptr %8, i64 14
  store i8 0, ptr %66, align 2
  %67 = trunc i32 %spec.select to i8
  %68 = getelementptr inbounds nuw i8, ptr %8, i64 15
  store i8 %67, ptr %68, align 1
  store i8 %26, ptr %7, align 16
  %69 = getelementptr inbounds nuw i8, ptr %7, i64 1
  store i8 %28, ptr %69, align 1
  %70 = getelementptr inbounds nuw i8, ptr %7, i64 2
  store i8 %31, ptr %70, align 2
  %71 = getelementptr inbounds nuw i8, ptr %7, i64 3
  store i8 %34, ptr %71, align 1
  %72 = getelementptr inbounds nuw i8, ptr %7, i64 4
  store i8 %37, ptr %72, align 4
  %73 = getelementptr inbounds nuw i8, ptr %7, i64 5
  store i8 %41, ptr %73, align 1
  %74 = getelementptr inbounds nuw i8, ptr %7, i64 6
  store i8 %44, ptr %74, align 2
  %75 = getelementptr inbounds nuw i8, ptr %7, i64 7
  store i8 %47, ptr %75, align 1
  %76 = getelementptr inbounds nuw i8, ptr %7, i64 8
  store i8 %50, ptr %76, align 8
  %77 = getelementptr inbounds nuw i8, ptr %7, i64 9
  store i8 %53, ptr %77, align 1
  %78 = getelementptr inbounds nuw i8, ptr %7, i64 10
  %79 = getelementptr inbounds nuw i8, ptr %7, i64 14
  store i32 0, ptr %78, align 2
  store i8 1, ptr %79, align 2
  %80 = getelementptr inbounds nuw i8, ptr %7, i64 15
  store i8 0, ptr %80, align 1
  %81 = zext nneg i32 %3 to i64
  %82 = getelementptr i8, ptr %2, i64 %81
  %83 = getelementptr i8, ptr %82, i64 -4
  %84 = call ptr @knx_ccm_encrypt(ptr noundef null, ptr noundef %1, ptr noundef %spec.select99, i32 noundef %spec.select, ptr noundef %83, i8 noundef zeroext 4, ptr noundef nonnull %7, i8 noundef zeroext 4)
  %85 = call noalias ptr @wmem_alloc(ptr noundef %0, i64 noundef %81) #11
  br i1 %23, label %86, label %87

86:                                               ; preds = %17
  store i8 %21, ptr %85, align 1
  br label %95

87:                                               ; preds = %17
  %88 = icmp eq i8 %22, 0
  br i1 %88, label %89, label %95

89:                                               ; preds = %87
  store i8 %21, ptr %85, align 1
  %90 = getelementptr i8, ptr %85, i64 1
  %91 = zext nneg i32 %24 to i64
  %92 = add nsw i64 %81, -1
  %93 = call ptr @__memcpy_chk(ptr noundef %90, ptr noundef %84, i64 noundef range(i64 -2147483648, 2147483648) %91, i64 noundef %92) #10, !alias.scope !29
  %94 = add nsw i32 %3, -3
  br label %95

95:                                               ; preds = %87, %89, %86
  %.193 = phi i32 [ %24, %86 ], [ 0, %89 ], [ 0, %87 ]
  %.089 = phi i32 [ 1, %86 ], [ %94, %89 ], [ 0, %87 ]
  %.1 = phi ptr [ %84, %86 ], [ null, %89 ], [ null, %87 ]
  call void @knx_ccm_calc_cbc_mac(ptr noundef nonnull %9, ptr noundef %1, ptr noundef %85, i32 noundef %.089, ptr noundef %.1, i32 noundef %.193, ptr noundef nonnull %8)
  call void @wmem_free(ptr noundef %0, ptr noundef %85)
  %96 = zext nneg i32 %.193 to i64
  %97 = getelementptr i8, ptr %84, i64 %96
  %bcmp = call i32 @bcmp(ptr noundef nonnull dereferenceable(4) %9, ptr noundef dereferenceable(4) %97, i64 4)
  %.not98 = icmp eq i32 %bcmp, 0
  br i1 %.not98, label %99, label %98

98:                                               ; preds = %95
  call void @wmem_free(ptr noundef %0, ptr noundef %84)
  br label %99

99:                                               ; preds = %12, %98, %95, %6
  %.090 = phi ptr [ null, %6 ], [ null, %12 ], [ null, %98 ], [ %84, %95 ]
  call void @llvm.lifetime.end.p0(i64 16, ptr nonnull %9) #10
  call void @llvm.lifetime.end.p0(i64 16, ptr nonnull %8) #10
  call void @llvm.lifetime.end.p0(i64 16, ptr nonnull %7) #10
  ret ptr %.090
}